; Function Attrs: nofree nounwind uwtable
define noalias noundef ptr @Gia_WriteEquivClasses(ptr noundef readonly captures(none) %0) local_unnamed_addr #0 {
  %2 = alloca i32, align 4
  call void @llvm.lifetime.start.p0(i64 4, ptr nonnull %2) #17
  %3 = call ptr @Gia_WriteEquivClassesInt(ptr noundef %0, ptr noundef nonnull %2)
  %4 = load i32, ptr %2, align 4, !tbaa !37
  %5 = tail call noalias dereferenceable_or_null(16) ptr @malloc(i64 noundef 16) #16
  %6 = getelementptr inbounds nuw i8, ptr %5, i64 4
  store i32 %4, ptr %6, align 4, !tbaa !45
  store i32 %4, ptr %5, align 8, !tbaa !47
  %7 = getelementptr inbounds nuw i8, ptr %5, i64 8
  store ptr %3, ptr %7, align 8, !tbaa !48
  call void @llvm.lifetime.end.p0(i64 4, ptr nonnull %2) #17
  ret ptr %5
}